Certificate:
    Data:
        Version: 3 (0x2)
        Serial Number: 4097 (0x1001)
    Signature Algorithm: sha256WithRSAEncryption
        Issuer: C=US, ST=Kansas, L=Manhattan, O=Kansas State University, OU=Computer Science, CN=CAZ/emailAddress=cazumbaugh@ksu.edu
        Validity
            Not Before: Dec  4 12:28:12 2025 GMT
            Not After : Dec  4 12:28:12 2026 GMT
        Subject: C=US, ST=Kansas, L=Manhattan, O=Facebook Inc, CN=facebook.com
        Subject Public Key Info:
            Public Key Algorithm: rsaEncryption
                Public-Key: (1024 bit)
                Modulus:
                    00:c3:70:c9:4c:2c:f1:b7:09:8f:e5:0a:ee:2b:ef:
                    90:e2:d2:49:1f:3a:95:68:d6:30:2b:c4:ca:57:94:
                    54:05:81:bf:02:64:9f:5b:f8:55:be:19:39:4a:0e:
                    3d:08:24:e7:cf:9d:b5:4b:1c:13:0e:5d:99:bc:30:
                    fd:68:a7:5b:3b:66:c4:6a:93:2c:9c:72:59:95:72:
                    f7:f7:f4:b2:c1:02:f5:b4:82:b5:5e:a3:d3:6d:cd:
                    99:6c:cf:7d:1c:be:c0:12:77:f5:dd:ec:93:f3:e3:
                    48:6f:cb:47:02:22:2e:93:fd:55:36:0c:76:75:8e:
                    5d:87:05:28:a3:bf:65:2a:97
                Exponent: 65537 (0x10001)
        X509v3 extensions:
            X509v3 Basic Constraints: 
                CA:FALSE
            Netscape Comment: 
                OpenSSL Generated Certificate
            X509v3 Subject Key Identifier: 
                39:DB:61:04:C8:16:08:A9:F2:63:79:1D:94:26:B9:11:08:F0:8A:6E
            X509v3 Authority Key Identifier: 
                keyid:F4:19:92:FA:02:4E:43:27:2A:BE:19:76:27:C8:04:02:FC:C6:B3:F7

    Signature Algorithm: sha256WithRSAEncryption
         92:4c:9f:35:81:f1:ef:c4:73:cf:e6:29:7a:88:2e:1d:e5:2b:
         5b:42:5c:2e:5f:b0:62:d0:18:45:09:d4:62:22:7c:37:77:0d:
         6c:c9:68:f7:6d:b9:4b:45:b1:30:53:92:20:78:b9:f2:1d:17:
         e0:52:6e:c5:26:7a:2f:d8:6c:1a:5e:5c:87:b4:bf:e6:dc:4a:
         5a:a5:3a:2e:8f:91:20:e9:dd:5e:be:a5:cb:12:65:75:54:46:
         3a:2e:da:13:73:34:64:d6:dd:92:70:66:8b:6d:34:10:87:46:
         e4:f0:83:75:f3:5d:ec:cc:ba:9b:6e:c6:d9:e0:d7:c0:d4:b7:
         17:bf:a6:ac:c6:a0:80:4d:f7:4f:14:db:c3:f5:3c:f7:80:b6:
         3c:6f:c8:f9:f0:53:14:1e:de:7f:55:eb:82:92:e4:79:c8:3f:
         37:1c:99:5f:c1:b9:11:dd:3e:11:78:92:45:69:f5:97:2d:3c:
         31:11:d1:1b:17:58:d9:cd:83:45:a7:54:08:7c:79:b8:85:96:
         7e:17:e4:1d:53:3c:c8:4e:57:11:27:f0:f6:a1:14:2f:cd:63:
         13:f9:17:9b:be:68:c6:65:d0:81:39:8c:93:bf:55:51:ab:cf:
         0c:15:5b:16:23:23:51:4c:09:3c:2f:02:74:43:17:c1:ea:30:
         07:cb:20:40
-----BEGIN CERTIFICATE-----
MIIDdDCCAlygAwIBAgICEAEwDQYJKoZIhvcNAQELBQAwgaAxCzAJBgNVBAYTAlVT
MQ8wDQYDVQQIDAZLYW5zYXMxEjAQBgNVBAcMCU1hbmhhdHRhbjEgMB4GA1UECgwX
S2Fuc2FzIFN0YXRlIFVuaXZlcnNpdHkxGTAXBgNVBAsMEENvbXB1dGVyIFNjaWVu
Y2UxDDAKBgNVBAMMA0NBWjEhMB8GCSqGSIb3DQEJARYSY2F6dW1iYXVnaEBrc3Uu
ZWR1MB4XDTI1MTIwNDEyMjgxMloXDTI2MTIwNDEyMjgxMlowYDELMAkGA1UEBhMC
VVMxDzANBgNVBAgMBkthbnNhczESMBAGA1UEBwwJTWFuaGF0dGFuMRUwEwYDVQQK
DAxGYWNlYm9vayBJbmMxFTATBgNVBAMMDGZhY2Vib29rLmNvbTCBnzANBgkqhkiG
9w0BAQEFAAOBjQAwgYkCgYEAw3DJTCzxtwmP5QruK++Q4tJJHzqVaNYwK8TKV5RU
BYG/AmSfW/hVvhk5Sg49CCTnz521SxwTDl2ZvDD9aKdbO2bEapMsnHJZlXL39/Sy
wQL1tIK1XqPTbc2ZbM99HL7AEnf13eyT8+NIb8tHAiIuk/1VNgx2dY5dhwUoo79l
KpcCAwEAAaN7MHkwCQYDVR0TBAIwADAsBglghkgBhvhCAQ0EHxYdT3BlblNTTCBH
ZW5lcmF0ZWQgQ2VydGlmaWNhdGUwHQYDVR0OBBYEFDnbYQTIFgip8mN5HZQmuREI
8IpuMB8GA1UdIwQYMBaAFPQZkvoCTkMnKr4ZdifIBAL8xrP3MA0GCSqGSIb3DQEB
CwUAA4IBAQCSTJ81gfHvxHPP5il6iC4d5StbQlwuX7Bi0BhFCdRiInw3dw1syWj3
bblLRbEwU5IgeLnyHRfgUm7FJnov2GwaXlyHtL/m3EpapTouj5Eg6d1evqXLEmV1
VEY6LtoTczRk1t2ScGaLbTQQh0bk8IN1813szLqbbsbZ4NfA1LcXv6asxqCATfdP
FNvD9Tz3gLY8b8j58FMUHt5/VeuCkuR5yD83HJlfwbkR3T4ReJJFafWXLTwxEdEb
F1jZzYNFp1QIfHm4hZZ+F+QdUzzITlcRJ/D2oRQvzWMT+RebvmjGZdCBOYyTv1VR
q88MFVsWIyNRTAk8LwJ0QxfB6jAHyyBA
-----END CERTIFICATE-----
