-----BEGIN RSA PRIVATE KEY-----
Proc-Type: 4,ENCRYPTED
DEK-Info: AES-128-CBC,DA02B08854E258BA0BC1DCC346757D38

2+k1GT4QvAPoe5toJBjBIiiR31jfV9+Mjv/JeZt5hr+cEnUc3mrkGE/GCHZBxDvY
jYv4+eB2n5YysHyTozBaogi0pHh+XAemwzVDhbXgOBu4XDcbEOfjVRVU7G1IFYp7
r1X44T8eohcJggv6kxt/inYFtfr+7bmpj4rn95ZoX0KRu391WbPM7lUaINGKCzPo
f7MjCi44bQAvJ79H8Mtz7/1u2O4Uc4JbfRsmc9ABgXjYhIOTqHL+SchQVRVJGU/v
aoEpQLFXYAtWmRVZzopGPx2MWNyH+2LllPIaIx47six3d+D71+mQYTKiZynk01Xr
+Vlu1gQ25QyeCWbIwZJ4wNTmsdPHgsNuYZg29zJS9h7qyTiV79/TIZ0/wa9uuNdX
z/fxstwMrAuvZ6BWlTmIPbXpFsMP/D0aVkJeXS4r7iXyNCyimdCNhzSb4Yny4AkY
W5nlK2ExncLsD1rJFfY4+8l/wHg0DNCOcBoYto39Evbizv1y2GvECFd7/YPZTRhv
6oAK0Vr59C89FV5i/SFIHgPHPZEKE+rpRVTsVQ6emiO6OZIUM8wz+IKeajKNdZ6W
eew0pwhqZTugl/zFDXywsn8GaWL7IHVB2xkqZO0dTkWn5scwGZHV86rmMqMlB9tK
1Yd5MYhGwQaQvHFb1NVHbVSNyXkks7Ys5bPd8axVrR19xRqMAtN5JLg/lYJVtXo1
hPiUDISpRY1u4EduUB8x81oWSu1x60z72xy7blzAaerN6NeSfLUmq1sSGoYAIgFo
/aXiDYAEa9V5NMh11IzwwHPd1LwdVz/yAWZ/VVH1HbXdMwbqQ/K5QmOacbQf4eSw
-----END RSA PRIVATE KEY-----
Certificate:
    Data:
        Version: 3 (0x2)
        Serial Number: 4096 (0x1000)
    Signature Algorithm: sha256WithRSAEncryption
        Issuer: C=US, ST=Kansas, L=Manhattan, O=Kansas State University, OU=Computer Science, CN=CAZ/emailAddress=cazumbaugh@ksu.edu
        Validity
            Not Before: Dec  4 09:43:21 2025 GMT
            Not After : Dec  4 09:43:21 2026 GMT
        Subject: C=US, ST=Kansas, L=Manhattan, O=SEEDPKILab2020.com, CN=SEEDPKILab2020.com
        Subject Public Key Info:
            Public Key Algorithm: rsaEncryption
                Public-Key: (1024 bit)
                Modulus:
                    00:c3:70:c9:4c:2c:f1:b7:09:8f:e5:0a:ee:2b:ef:
                    90:e2:d2:49:1f:3a:95:68:d6:30:2b:c4:ca:57:94:
                    54:05:81:bf:02:64:9f:5b:f8:55:be:19:39:4a:0e:
                    3d:08:24:e7:cf:9d:b5:4b:1c:13:0e:5d:99:bc:30:
                    fd:68:a7:5b:3b:66:c4:6a:93:2c:9c:72:59:95:72:
                    f7:f7:f4:b2:c1:02:f5:b4:82:b5:5e:a3:d3:6d:cd:
                    99:6c:cf:7d:1c:be:c0:12:77:f5:dd:ec:93:f3:e3:
                    48:6f:cb:47:02:22:2e:93:fd:55:36:0c:76:75:8e:
                    5d:87:05:28:a3:bf:65:2a:97
                Exponent: 65537 (0x10001)
        X509v3 extensions:
            X509v3 Basic Constraints: 
                CA:FALSE
            Netscape Comment: 
                OpenSSL Generated Certificate
            X509v3 Subject Key Identifier: 
                39:DB:61:04:C8:16:08:A9:F2:63:79:1D:94:26:B9:11:08:F0:8A:6E
            X509v3 Authority Key Identifier: 
                keyid:F4:19:92:FA:02:4E:43:27:2A:BE:19:76:27:C8:04:02:FC:C6:B3:F7

    Signature Algorithm: sha256WithRSAEncryption
         26:c7:b3:77:c7:54:0f:ff:99:41:91:d2:13:8a:c4:32:07:10:
         44:b9:9a:15:3b:86:38:9d:77:93:73:07:b5:42:65:7c:68:44:
         42:9b:e5:a9:1c:9a:32:13:19:f9:5a:a3:3e:e7:07:10:dd:1d:
         d6:13:6b:c2:9d:96:e1:d7:1c:78:25:11:c2:e6:03:5f:bb:1a:
         da:b7:2e:ec:34:b9:9e:d3:87:b4:aa:a4:41:7b:59:4d:8b:87:
         58:6a:94:d0:91:a2:00:e4:72:81:93:e5:25:85:70:68:e7:7a:
         0e:a6:c4:8b:cb:18:64:8c:65:12:06:aa:99:6d:3d:1f:fc:83:
         01:ae:49:25:a9:47:82:d7:67:ac:ed:52:34:d9:14:f0:6f:ba:
         c8:47:9b:be:32:64:e1:6f:ba:0f:c7:8c:eb:bf:f7:3e:22:02:
         56:bf:94:3f:46:f5:00:0d:eb:3d:7d:0a:e0:ee:a9:19:fe:31:
         43:74:0f:72:49:a0:22:a4:b2:74:a3:50:88:2c:2c:b7:91:d3:
         90:bb:ef:15:5f:b3:ef:75:4d:ea:a6:10:5e:58:f1:5a:e2:7c:
         63:ed:a0:fb:1a:0d:23:e4:4a:b4:6c:17:b0:2b:71:63:d6:cb:
         87:75:21:0c:98:dd:d7:51:98:99:ec:3b:4b:9e:fc:46:94:52:
         f0:7f:44:f2
-----BEGIN CERTIFICATE-----
MIIDgDCCAmigAwIBAgICEAAwDQYJKoZIhvcNAQELBQAwgaAxCzAJBgNVBAYTAlVT
MQ8wDQYDVQQIDAZLYW5zYXMxEjAQBgNVBAcMCU1hbmhhdHRhbjEgMB4GA1UECgwX
S2Fuc2FzIFN0YXRlIFVuaXZlcnNpdHkxGTAXBgNVBAsMEENvbXB1dGVyIFNjaWVu
Y2UxDDAKBgNVBAMMA0NBWjEhMB8GCSqGSIb3DQEJARYSY2F6dW1iYXVnaEBrc3Uu
ZWR1MB4XDTI1MTIwNDA5NDMyMVoXDTI2MTIwNDA5NDMyMVowbDELMAkGA1UEBhMC
VVMxDzANBgNVBAgMBkthbnNhczESMBAGA1UEBwwJTWFuaGF0dGFuMRswGQYDVQQK
DBJTRUVEUEtJTGFiMjAyMC5jb20xGzAZBgNVBAMMElNFRURQS0lMYWIyMDIwLmNv
bTCBnzANBgkqhkiG9w0BAQEFAAOBjQAwgYkCgYEAw3DJTCzxtwmP5QruK++Q4tJJ
HzqVaNYwK8TKV5RUBYG/AmSfW/hVvhk5Sg49CCTnz521SxwTDl2ZvDD9aKdbO2bE
apMsnHJZlXL39/SywQL1tIK1XqPTbc2ZbM99HL7AEnf13eyT8+NIb8tHAiIuk/1V
Ngx2dY5dhwUoo79lKpcCAwEAAaN7MHkwCQYDVR0TBAIwADAsBglghkgBhvhCAQ0E
HxYdT3BlblNTTCBHZW5lcmF0ZWQgQ2VydGlmaWNhdGUwHQYDVR0OBBYEFDnbYQTI
Fgip8mN5HZQmuREI8IpuMB8GA1UdIwQYMBaAFPQZkvoCTkMnKr4ZdifIBAL8xrP3
MA0GCSqGSIb3DQEBCwUAA4IBAQAmx7N3x1QP/5lBkdITisQyBxBEuZoVO4Y4nXeT
cwe1QmV8aERCm+WpHJoyExn5WqM+5wcQ3R3WE2vCnZbh1xx4JRHC5gNfuxraty7s
NLme04e0qqRBe1lNi4dYapTQkaIA5HKBk+UlhXBo53oOpsSLyxhkjGUSBqqZbT0f
/IMBrkklqUeC12es7VI02RTwb7rIR5u+MmThb7oPx4zrv/c+IgJWv5Q/RvUADes9
fQrg7qkZ/jFDdA9ySaAipLJ0o1CILCy3kdOQu+8VX7PvdU3qphBeWPFa4nxj7aD7
Gg0j5Eq0bBewK3Fj1suHdSEMmN3XUZiZ7DtLnvxGlFLwf0Ty
-----END CERTIFICATE-----
